target datalayout = "e-m:e-p270:32:32-p271:32:32-p272:64:64-i64:64-i128:128-f80:128-n8:16:32:64-S128"
target triple = "x86_64-pc-linux-gnu"

%struct.fstReaderContext = type { ptr, ptr, i64, i64, i64, i64, i64, i32, i64, i64, ptr, ptr, ptr, i32, ptr, i8, i8, i8, [129 x i8], [120 x i8], i64, ptr, ptr, i64, i32, ptr, ptr, i64, i64, i8, ptr, i64, i64, ptr, i64, ptr, ptr, i64, i64, ptr, i32, i32, ptr, i32, i32, i32, i64, i8, %struct.fstHier, ptr, i32, ptr, i32, i8, [513 x i8], [513 x i8], ptr, i8, i32, i32, [65536 x i8], ptr, ptr }
%struct.fstHier = type { i8, %union.anon }
%union.anon = type { %"struct.fstHier::(anonymous union)::fstHierAttr" }
%"struct.fstHier::(anonymous union)::fstHierAttr" = type { i8, i8, ptr, i64, i64, i32 }

; Function Attrs: mustprogress nounwind uwtable
define i32 @fstReaderGetFseekFailed(ptr noundef %0) #8 {
  %2 = alloca i32, align 4
  %3 = alloca ptr, align 8
  %4 = alloca ptr, align 8
  %5 = alloca i32, align 4
  store ptr %0, ptr %3, align 8, !tbaa !50
  call void @llvm.lifetime.start.p0(i64 8, ptr %4) #15
  %6 = load ptr, ptr %3, align 8, !tbaa !50
  store ptr %6, ptr %4, align 8, !tbaa !147
  %7 = load ptr, ptr %4, align 8, !tbaa !147
  %8 = icmp ne ptr %7, null
  br i1 %8, label %9, label %17

9:                                                ; preds = %1
  %10 = load ptr, ptr %4, align 8, !tbaa !147
  %11 = getelementptr inbounds nuw %struct.fstReaderContext, ptr %10, i32 0, i32 57
  %12 = load i8, ptr %11, align 8
  %13 = and i8 %12, 1
  %14 = zext i8 %13 to i32
  %15 = icmp ne i32 %14, 0
  %16 = zext i1 %15 to i32
  store i32 %16, ptr %2, align 4
  store i32 1, ptr %5, align 4
  br label %18

17:                                               ; preds = %1
  store i32 0, ptr %2, align 4
  store i32 1, ptr %5, align 4
  br label %18

18:                                               ; preds = %17, %9
  call void @llvm.lifetime.end.p0(i64 8, ptr %4) #15
  %19 = load i32, ptr %2, align 4
  ret i32 %19
}